target datalayout = "e-m:e-p270:32:32-p271:32:32-p272:64:64-i64:64-i128:128-f80:128-n8:16:32:64-S128"
target triple = "x86_64-pc-linux-gnu"

%class.NodeHash = type { ptr, i32, i32, i32, ptr, ptr }
%class.Arena = type { i8, i8, i64, ptr, ptr, ptr, ptr }

; Function Attrs: mustprogress nounwind uwtable
define linkonce_odr hidden noundef i64 @_Z13pointer_deltaPVKvS0_m(ptr noundef %0, ptr noundef %1, i64 noundef %2) #1 comdat {
  %4 = alloca ptr, align 8
  %5 = alloca ptr, align 8
  %6 = alloca i64, align 8
  store ptr %0, ptr %4, align 8
  store ptr %1, ptr %5, align 8
  store i64 %2, ptr %6, align 8
  %7 = load ptr, ptr %4, align 8
  %8 = ptrtoint ptr %7 to i64
  %9 = load ptr, ptr %5, align 8
  %10 = ptrtoint ptr %9 to i64
  %11 = sub i64 %8, %10
  %12 = load i64, ptr %6, align 8
  %13 = udiv i64 %11, %12
  ret i64 %13
}

; Function Attrs: mustprogress nounwind uwtable
define linkonce_odr hidden noundef i64 @_Z10align_downImiTnNSt9enable_ifIXcvbsr3std11is_integralIT_EE5valueEiE4typeELi0EES1_S1_T0_(i64 noundef %0, i32 noundef %1) #1 comdat {
  %3 = alloca i64, align 8
  %4 = alloca i32, align 4
  %5 = alloca i64, align 8
  store i64 %0, ptr %3, align 8
  store i32 %1, ptr %4, align 4
  %6 = load i64, ptr %3, align 8
  %7 = load i32, ptr %4, align 4
  %8 = call noundef i32 @_ZL14alignment_maskIiTnNSt9enable_ifIXcvbsr3std11is_integralIT_EE5valueEiE4typeELi0EES1_S1_(i32 noundef %7)
  %9 = sext i32 %8 to i64
  %10 = xor i64 %9, -1
  %11 = and i64 %6, %10
  store i64 %11, ptr %5, align 8
  %12 = load i64, ptr %5, align 8
  ret i64 %12
}

; Function Attrs: mustprogress nounwind uwtable
define linkonce_odr hidden noundef i64 @_Z12checked_castImmET_T0_(i64 noundef %0) #1 comdat {
  %2 = alloca i64, align 8
  %3 = alloca i64, align 8
  store i64 %0, ptr %2, align 8
  %4 = load i64, ptr %2, align 8
  store i64 %4, ptr %3, align 8
  %5 = load i64, ptr %3, align 8
  ret i64 %5
}

; Function Attrs: mustprogress nounwind uwtable
define internal noundef i32 @_ZL14alignment_maskIiTnNSt9enable_ifIXcvbsr3std11is_integralIT_EE5valueEiE4typeELi0EES1_S1_(i32 noundef %0) #1 {
  %2 = alloca i32, align 4
  store i32 %0, ptr %2, align 4
  %3 = load i32, ptr %2, align 4
  %4 = sub nsw i32 %3, 1
  ret i32 %4
}

; Function Attrs: mustprogress nounwind uwtable
define linkonce_odr hidden noundef ptr @_ZN5Arena16internal_amallocEmN17AllocFailStrategy13AllocFailEnumE(ptr noundef nonnull align 8 dereferenceable(48) %0, i64 noundef %1, i32 noundef %2) #1 comdat align 2 {
  %4 = alloca ptr, align 8
  %5 = alloca ptr, align 8
  %6 = alloca i64, align 8
  %7 = alloca i32, align 4
  %8 = alloca ptr, align 8
  store ptr %0, ptr %5, align 8
  store i64 %1, ptr %6, align 8
  store i32 %2, ptr %7, align 4
  %9 = load ptr, ptr %5, align 8
  %10 = getelementptr inbounds %class.Arena, ptr %9, i32 0, i32 6
  %11 = load ptr, ptr %10, align 8
  %12 = getelementptr inbounds %class.Arena, ptr %9, i32 0, i32 5
  %13 = load ptr, ptr %12, align 8
  %14 = call noundef i64 @_Z13pointer_deltaPVKvS0_m(ptr noundef %11, ptr noundef %13, i64 noundef 1)
  %15 = load i64, ptr %6, align 8
  %16 = icmp uge i64 %14, %15
  br i1 %16, label %17, label %25

17:                                               ; preds = %3
  %18 = getelementptr inbounds %class.Arena, ptr %9, i32 0, i32 5
  %19 = load ptr, ptr %18, align 8
  store ptr %19, ptr %8, align 8
  %20 = load i64, ptr %6, align 8
  %21 = getelementptr inbounds %class.Arena, ptr %9, i32 0, i32 5
  %22 = load ptr, ptr %21, align 8
  %23 = getelementptr inbounds i8, ptr %22, i64 %20
  store ptr %23, ptr %21, align 8
  %24 = load ptr, ptr %8, align 8
  store ptr %24, ptr %4, align 8
  br label %29

25:                                               ; preds = %3
  %26 = load i64, ptr %6, align 8
  %27 = load i32, ptr %7, align 4
  %28 = call noundef ptr @_ZN5Arena4growEmN17AllocFailStrategy13AllocFailEnumE(ptr noundef nonnull align 8 dereferenceable(48) %9, i64 noundef %26, i32 noundef %27)
  store ptr %28, ptr %4, align 8
  br label %29

29:                                               ; preds = %25, %17
  %30 = load ptr, ptr %4, align 8
  ret ptr %30
}

; Function Attrs: mustprogress nounwind uwtable
define linkonce_odr hidden noundef i64 @_Z8align_upImiTnNSt9enable_ifIXcvbsr3std11is_integralIT_EE5valueEiE4typeELi0EES1_S1_T0_(i64 noundef %0, i32 noundef %1) #1 comdat {
  %3 = alloca i64, align 8
  %4 = alloca i32, align 4
  %5 = alloca i64, align 8
  store i64 %0, ptr %3, align 8
  store i32 %1, ptr %4, align 4
  %6 = load i64, ptr %3, align 8
  %7 = load i32, ptr %4, align 4
  %8 = call noundef i32 @_ZL14alignment_maskIiTnNSt9enable_ifIXcvbsr3std11is_integralIT_EE5valueEiE4typeELi0EES1_S1_(i32 noundef %7)
  %9 = sext i32 %8 to i64
  %10 = add i64 %6, %9
  %11 = call noundef i64 @_Z12checked_castImmET_T0_(i64 noundef %10)
  store i64 %11, ptr %5, align 8
  %12 = load i64, ptr %5, align 8
  %13 = load i32, ptr %4, align 4
  %14 = call noundef i64 @_Z10align_downImiTnNSt9enable_ifIXcvbsr3std11is_integralIT_EE5valueEiE4typeELi0EES1_S1_T0_(i64 noundef %12, i32 noundef %13)
  ret i64 %14
}

; Function Attrs: mustprogress nounwind uwtable
define linkonce_odr hidden noundef i32 @_ZNK8NodeHash12insert_limitEv(ptr noundef nonnull align 8 dereferenceable(40) %0) #1 comdat align 2 {
  %2 = alloca ptr, align 8
  store ptr %0, ptr %2, align 8
  %3 = load ptr, ptr %2, align 8
  %4 = getelementptr inbounds %class.NodeHash, ptr %3, i32 0, i32 1
  %5 = load i32, ptr %4, align 8
  %6 = getelementptr inbounds %class.NodeHash, ptr %3, i32 0, i32 1
  %7 = load i32, ptr %6, align 8
  %8 = lshr i32 %7, 2
  %9 = sub i32 %5, %8
  ret i32 %9
}

; Function Attrs: mustprogress nounwind uwtable
define linkonce_odr hidden noundef ptr @_ZN5Arena7AmallocEmN17AllocFailStrategy13AllocFailEnumE(ptr noundef nonnull align 8 dereferenceable(48) %0, i64 noundef %1, i32 noundef %2) #1 comdat align 2 {
  %4 = alloca ptr, align 8
  %5 = alloca i64, align 8
  %6 = alloca i32, align 4
  store ptr %0, ptr %4, align 8
  store i64 %1, ptr %5, align 8
  store i32 %2, ptr %6, align 4
  %7 = load ptr, ptr %4, align 8
  %8 = load i64, ptr %5, align 8
  %9 = call noundef i64 @_Z8align_upImiTnNSt9enable_ifIXcvbsr3std11is_integralIT_EE5valueEiE4typeELi0EES1_S1_T0_(i64 noundef %8, i32 noundef 8)
  store i64 %9, ptr %5, align 8
  %10 = load i64, ptr %5, align 8
  %11 = load i32, ptr %6, align 4
  %12 = call noundef ptr @_ZN5Arena16internal_amallocEmN17AllocFailStrategy13AllocFailEnumE(ptr noundef nonnull align 8 dereferenceable(48) %7, i64 noundef %10, i32 noundef %11)
  ret ptr %12
}

; Function Attrs: mustprogress nounwind uwtable
define hidden void @_ZN8NodeHash4growEv(ptr noundef nonnull align 8 dereferenceable(40) %0) #1 align 2 {
  %2 = alloca ptr, align 8
  %3 = alloca i32, align 4
  %4 = alloca ptr, align 8
  %5 = alloca i32, align 4
  %6 = alloca ptr, align 8
  store ptr %0, ptr %2, align 8
  %7 = load ptr, ptr %2, align 8
  %8 = getelementptr inbounds %class.NodeHash, ptr %7, i32 0, i32 1
  %9 = load i32, ptr %8, align 8
  store i32 %9, ptr %3, align 4
  %10 = getelementptr inbounds %class.NodeHash, ptr %7, i32 0, i32 4
  %11 = load ptr, ptr %10, align 8
  store ptr %11, ptr %4, align 8
  %12 = getelementptr inbounds %class.NodeHash, ptr %7, i32 0, i32 2
  store i32 0, ptr %12, align 4
  %13 = getelementptr inbounds %class.NodeHash, ptr %7, i32 0, i32 1
  %14 = load i32, ptr %13, align 8
  %15 = shl i32 %14, 1
  %16 = getelementptr inbounds %class.NodeHash, ptr %7, i32 0, i32 1
  store i32 %15, ptr %16, align 8
  %17 = getelementptr inbounds %class.NodeHash, ptr %7, i32 0, i32 0
  %18 = load ptr, ptr %17, align 8
  %19 = getelementptr inbounds %class.NodeHash, ptr %7, i32 0, i32 1
  %20 = load i32, ptr %19, align 8
  %21 = zext i32 %20 to i64
  %22 = mul i64 %21, 8
  %23 = call noundef ptr @_ZN5Arena7AmallocEmN17AllocFailStrategy13AllocFailEnumE(ptr noundef nonnull align 8 dereferenceable(48) %18, i64 noundef %22, i32 noundef 0)
  %24 = getelementptr inbounds %class.NodeHash, ptr %7, i32 0, i32 4
  store ptr %23, ptr %24, align 8
  %25 = getelementptr inbounds %class.NodeHash, ptr %7, i32 0, i32 4
  %26 = load ptr, ptr %25, align 8
  %27 = getelementptr inbounds %class.NodeHash, ptr %7, i32 0, i32 1
  %28 = load i32, ptr %27, align 8
  %29 = zext i32 %28 to i64
  %30 = mul i64 8, %29
  call void @llvm.memset.p0.i64(ptr align 8 %26, i8 0, i64 %30, i1 false)
  %31 = call noundef i32 @_ZNK8NodeHash12insert_limitEv(ptr noundef nonnull align 8 dereferenceable(40) %7)
  %32 = getelementptr inbounds %class.NodeHash, ptr %7, i32 0, i32 3
  store i32 %31, ptr %32, align 8
  store i32 0, ptr %5, align 4
  br label %33

33:                                               ; preds = %51, %1
  %34 = load i32, ptr %5, align 4
  %35 = load i32, ptr %3, align 4
  %36 = icmp ult i32 %34, %35
  br i1 %36, label %37, label %54

37:                                               ; preds = %33
  %38 = load ptr, ptr %4, align 8
  %39 = getelementptr inbounds ptr, ptr %38, i32 1
  store ptr %39, ptr %4, align 8
  %40 = load ptr, ptr %38, align 8
  store ptr %40, ptr %6, align 8
  %41 = load ptr, ptr %6, align 8
  %42 = icmp ne ptr %41, null
  br i1 %42, label %43, label %48

43:                                               ; preds = %37
  %44 = load ptr, ptr %6, align 8
  %45 = getelementptr inbounds %class.NodeHash, ptr %7, i32 0, i32 5
  %46 = load ptr, ptr %45, align 8
  %47 = icmp eq ptr %44, %46
  br i1 %47, label %48, label %49

48:                                               ; preds = %43, %37
  br label %51

49:                                               ; preds = %43
  %50 = load ptr, ptr %6, align 8
  call void @_ZN8NodeHash11hash_insertEP4Node(ptr noundef nonnull align 8 dereferenceable(40) %7, ptr noundef %50)
  br label %51

51:                                               ; preds = %49, %48
  %52 = load i32, ptr %5, align 4
  %53 = add i32 %52, 1
  store i32 %53, ptr %5, align 4
  br label %33, !llvm.loop !13

54:                                               ; preds = %33
  ret void
}

; Function Attrs: mustprogress nounwind uwtable
define linkonce_odr hidden void @_ZN8NodeHash10check_growEv(ptr noundef nonnull align 8 dereferenceable(40) %0) #1 comdat align 2 {
  %2 = alloca ptr, align 8
  store ptr %0, ptr %2, align 8
  %3 = load ptr, ptr %2, align 8
  %4 = getelementptr inbounds %class.NodeHash, ptr %3, i32 0, i32 2
  %5 = load i32, ptr %4, align 4
  %6 = add i32 %5, 1
  store i32 %6, ptr %4, align 4
  %7 = getelementptr inbounds %class.NodeHash, ptr %3, i32 0, i32 2
  %8 = load i32, ptr %7, align 4
  %9 = getelementptr inbounds %class.NodeHash, ptr %3, i32 0, i32 3
  %10 = load i32, ptr %9, align 8
  %11 = icmp eq i32 %8, %10
  br i1 %11, label %12, label %13

12:                                               ; preds = %1
  call void @_ZN8NodeHash4growEv(ptr noundef nonnull align 8 dereferenceable(40) %3)
  br label %13

13:                                               ; preds = %12, %1
  ret void
}

; Function Attrs: mustprogress nounwind uwtable
define hidden void @_ZN8NodeHash11hash_insertEP4Node(ptr noundef nonnull align 8 dereferenceable(40) %0, ptr noundef %1) #1 align 2 {
  %3 = alloca ptr, align 8
  %4 = alloca ptr, align 8
  %5 = alloca i32, align 4
  %6 = alloca i32, align 4
  %7 = alloca i32, align 4
  %8 = alloca ptr, align 8
  store ptr %0, ptr %3, align 8
  store ptr %1, ptr %4, align 8
  %9 = load ptr, ptr %3, align 8
  %10 = load ptr, ptr %4, align 8
  %11 = load ptr, ptr %10, align 8
  %12 = getelementptr inbounds ptr, ptr %11, i64 11
  %13 = load ptr, ptr %12, align 8
  %14 = call noundef i32 %13(ptr noundef nonnull align 8 dereferenceable(52) %10)
  store i32 %14, ptr %5, align 4
  %15 = load i32, ptr %5, align 4
  %16 = icmp eq i32 %15, 0
  br i1 %16, label %17, label %18

17:                                               ; preds = %2
  br label %56

18:                                               ; preds = %2
  call void @_ZN8NodeHash10check_growEv(ptr noundef nonnull align 8 dereferenceable(40) %9)
  %19 = load i32, ptr %5, align 4
  %20 = getelementptr inbounds %class.NodeHash, ptr %9, i32 0, i32 1
  %21 = load i32, ptr %20, align 8
  %22 = sub i32 %21, 1
  %23 = and i32 %19, %22
  store i32 %23, ptr %6, align 4
  %24 = load i32, ptr %6, align 4
  %25 = or i32 %24, 1
  store i32 %25, ptr %7, align 4
  br label %26

26:                                               ; preds = %41, %18
  %27 = getelementptr inbounds %class.NodeHash, ptr %9, i32 0, i32 4
  %28 = load ptr, ptr %27, align 8
  %29 = load i32, ptr %6, align 4
  %30 = zext i32 %29 to i64
  %31 = getelementptr inbounds ptr, ptr %28, i64 %30
  %32 = load ptr, ptr %31, align 8
  store ptr %32, ptr %8, align 8
  %33 = load ptr, ptr %8, align 8
  %34 = icmp ne ptr %33, null
  br i1 %34, label %35, label %40

35:                                               ; preds = %26
  %36 = load ptr, ptr %8, align 8
  %37 = getelementptr inbounds %class.NodeHash, ptr %9, i32 0, i32 5
  %38 = load ptr, ptr %37, align 8
  %39 = icmp eq ptr %36, %38
  br i1 %39, label %40, label %41

40:                                               ; preds = %35, %26
  br label %49

41:                                               ; preds = %35
  %42 = load i32, ptr %6, align 4
  %43 = load i32, ptr %7, align 4
  %44 = add i32 %42, %43
  %45 = getelementptr inbounds %class.NodeHash, ptr %9, i32 0, i32 1
  %46 = load i32, ptr %45, align 8
  %47 = sub i32 %46, 1
  %48 = and i32 %44, %47
  store i32 %48, ptr %6, align 4
  br label %26, !llvm.loop !11

49:                                               ; preds = %40
  %50 = load ptr, ptr %4, align 8
  %51 = getelementptr inbounds %class.NodeHash, ptr %9, i32 0, i32 4
  %52 = load ptr, ptr %51, align 8
  %53 = load i32, ptr %6, align 4
  %54 = zext i32 %53 to i64
  %55 = getelementptr inbounds ptr, ptr %52, i64 %54
  store ptr %50, ptr %55, align 8
  br label %56

56:                                               ; preds = %49, %17
  ret void
}