; Function Attrs: mustprogress nounwind uwtable
define hidden void @_ZN8NodeHash11hash_insertEP4Node(ptr nocapture noundef nonnull align 8 dereferenceable(40) %0, ptr noundef %1) local_unnamed_addr #0 align 2 {
  %3 = load ptr, ptr %1, align 8
  %4 = getelementptr inbounds i8, ptr %3, i64 88
  %5 = load ptr, ptr %4, align 8
  %6 = tail call noundef i32 %5(ptr noundef nonnull align 8 dereferenceable(52) %1) #16
  %7 = icmp eq i32 %6, 0
  br i1 %7, label %70, label %8

8:                                                ; preds = %2
  %9 = getelementptr inbounds i8, ptr %0, i64 12
  %10 = load i32, ptr %9, align 4
  %11 = add i32 %10, 1
  store i32 %11, ptr %9, align 4
  %12 = getelementptr inbounds i8, ptr %0, i64 16
  %13 = load i32, ptr %12, align 8
  %14 = icmp eq i32 %11, %13
  br i1 %14, label %15, label %_ZN8NodeHash10check_growEv.exit

15:                                               ; preds = %8
  %16 = getelementptr inbounds i8, ptr %0, i64 8
  %17 = load i32, ptr %16, align 8
  %18 = getelementptr inbounds i8, ptr %0, i64 24
  %19 = load ptr, ptr %18, align 8
  store i32 0, ptr %9, align 4
  %20 = shl i32 %17, 1
  store i32 %20, ptr %16, align 8
  %21 = load ptr, ptr %0, align 8
  %22 = zext i32 %20 to i64
  %23 = shl nuw nsw i64 %22, 3
  %24 = getelementptr inbounds i8, ptr %21, i64 40
  %25 = load ptr, ptr %24, align 8
  %26 = getelementptr inbounds i8, ptr %21, i64 32
  %27 = load ptr, ptr %26, align 8
  %28 = ptrtoint ptr %25 to i64
  %29 = ptrtoint ptr %27 to i64
  %30 = sub i64 %28, %29
  %.not.i.i15 = icmp ult i64 %30, %23
  br i1 %.not.i.i15, label %33, label %31

31:                                               ; preds = %15
  %32 = getelementptr inbounds i8, ptr %27, i64 %23
  store ptr %32, ptr %26, align 8
  br label %_ZN5Arena7AmallocEmN17AllocFailStrategy13AllocFailEnumE.exit

33:                                               ; preds = %15
  %34 = tail call noundef ptr @_ZN5Arena4growEmN17AllocFailStrategy13AllocFailEnumE(ptr noundef nonnull align 8 dereferenceable(48) %21, i64 noundef %23, i32 noundef 0) #16
  br label %_ZN5Arena7AmallocEmN17AllocFailStrategy13AllocFailEnumE.exit

_ZN5Arena7AmallocEmN17AllocFailStrategy13AllocFailEnumE.exit: ; preds = %31, %33
  %.0.i.i16 = phi ptr [ %27, %31 ], [ %34, %33 ]
  store ptr %.0.i.i16, ptr %18, align 8
  %35 = load i32, ptr %16, align 8
  %36 = zext i32 %35 to i64
  %37 = shl nuw nsw i64 %36, 3
  tail call void @llvm.memset.p0.i64(ptr align 8 %.0.i.i16, i8 0, i64 %37, i1 false)
  %38 = load i32, ptr %16, align 8
  %39 = lshr i32 %38, 2
  %40 = sub i32 %38, %39
  store i32 %40, ptr %12, align 8
  %.not26 = icmp eq i32 %17, 0
  br i1 %.not26, label %_ZN8NodeHash10check_growEv.exit, label %.lr.ph

.lr.ph:                                           ; preds = %_ZN5Arena7AmallocEmN17AllocFailStrategy13AllocFailEnumE.exit
  %41 = getelementptr inbounds i8, ptr %0, i64 32
  br label %42

42:                                               ; preds = %.lr.ph, %48
  %.0.i.i18 = phi ptr [ %19, %.lr.ph ], [ %43, %48 ]
  %.07.i.i17 = phi i32 [ 0, %.lr.ph ], [ %49, %48 ]
  %43 = getelementptr inbounds i8, ptr %.0.i.i18, i64 8
  %44 = load ptr, ptr %.0.i.i18, align 8
  %.not.i.i = icmp eq ptr %44, null
  %45 = load ptr, ptr %41, align 8
  %46 = icmp eq ptr %44, %45
  %or.cond.i.i = select i1 %.not.i.i, i1 true, i1 %46
  br i1 %or.cond.i.i, label %48, label %47

47:                                               ; preds = %42
  tail call void @_ZN8NodeHash11hash_insertEP4Node(ptr noundef nonnull align 8 dereferenceable(40) %0, ptr noundef nonnull %44)
  br label %48

48:                                               ; preds = %47, %42
  %49 = add nuw i32 %.07.i.i17, 1
  %exitcond.not = icmp eq i32 %49, %17
  br i1 %exitcond.not, label %_ZN8NodeHash10check_growEv.exit, label %42, !llvm.loop !9

_ZN8NodeHash10check_growEv.exit:                  ; preds = %48, %_ZN5Arena7AmallocEmN17AllocFailStrategy13AllocFailEnumE.exit, %8
  %50 = getelementptr inbounds i8, ptr %0, i64 8
  %51 = load i32, ptr %50, align 8
  %52 = add i32 %51, -1
  %53 = and i32 %52, %6
  %54 = or i32 %53, 1
  %55 = getelementptr inbounds i8, ptr %0, i64 24
  %56 = load ptr, ptr %55, align 8
  %57 = getelementptr inbounds i8, ptr %0, i64 32
  %58 = load ptr, ptr %57, align 8
  %59 = zext i32 %53 to i64
  %60 = getelementptr inbounds ptr, ptr %56, i64 %59
  %61 = load ptr, ptr %60, align 8
  %.not21 = icmp eq ptr %61, null
  %62 = icmp eq ptr %61, %58
  %or.cond22 = select i1 %.not21, i1 true, i1 %62
  br i1 %or.cond22, label %._crit_edge, label %.lr.ph24

.lr.ph24:                                         ; preds = %_ZN8NodeHash10check_growEv.exit, %.lr.ph24
  %.023 = phi i32 [ %64, %.lr.ph24 ], [ %53, %_ZN8NodeHash10check_growEv.exit ]
  %63 = add i32 %.023, %54
  %64 = and i32 %63, %52
  %65 = zext i32 %64 to i64
  %66 = getelementptr inbounds ptr, ptr %56, i64 %65
  %67 = load ptr, ptr %66, align 8
  %.not = icmp eq ptr %67, null
  %68 = icmp eq ptr %67, %58
  %or.cond = select i1 %.not, i1 true, i1 %68
  br i1 %or.cond, label %._crit_edge, label %.lr.ph24, !llvm.loop !12

._crit_edge:                                      ; preds = %.lr.ph24, %_ZN8NodeHash10check_growEv.exit
  %.lcssa20 = phi i64 [ %59, %_ZN8NodeHash10check_growEv.exit ], [ %65, %.lr.ph24 ]
  %69 = getelementptr inbounds ptr, ptr %56, i64 %.lcssa20
  store ptr %1, ptr %69, align 8
  br label %70

70:                                               ; preds = %2, %._crit_edge
  ret void
}